; ModuleID = '13/813.c'
source_filename = "13/813.c"
target datalayout = "e-m:e-p270:32:32-p271:32:32-p272:64:64-i64:64-f80:128-n8:16:32:64-S128"
target triple = "x86_64-pc-linux-gnu"

@.str = private unnamed_addr constant [3 x i8] c"%d\00", align 1
@.str.1 = private unnamed_addr constant [4 x i8] c" %d\00", align 1
@.str.2 = private unnamed_addr constant [2 x i8] c"\0A\00", align 1

; Function Attrs: noinline nounwind uwtable
define dso_local i32 @main() #0 {
  %1 = alloca i32, align 4
  %2 = alloca i32, align 4
  %3 = alloca i32, align 4
  %4 = alloca i32, align 4
  %5 = alloca i32, align 4
  %6 = alloca [20000 x i32], align 16
  %7 = alloca i32, align 4
  %8 = alloca i32, align 4
  %9 = alloca i32, align 4
  store i32 0, i32* %1, align 4
  store i32 0, i32* %9, align 4
  store i32 0, i32* %8, align 4
  %10 = call i32 (i8*, ...) @__isoc99_scanf(i8* getelementptr inbounds ([3 x i8], [3 x i8]* @.str, i64 0, i64 0), i32* %7)
  store i32 1, i32* %3, align 4
  br label %11

11:                                               ; preds = %46, %0
  %12 = load i32, i32* %3, align 4
  %13 = load i32, i32* %7, align 4
  %14 = icmp sle i32 %12, %13
  br i1 %14, label %15, label %49

15:                                               ; preds = %11
  %16 = call i32 (i8*, ...) @__isoc99_scanf(i8* getelementptr inbounds ([3 x i8], [3 x i8]* @.str, i64 0, i64 0), i32* %5)
  store i32 1, i32* %2, align 4
  br label %17

17:                                               ; preds = %32, %15
  %18 = load i32, i32* %2, align 4
  %19 = load i32, i32* %8, align 4
  %20 = add nsw i32 %19, 1
  %21 = icmp sle i32 %18, %20
  br i1 %21, label %22, label %35

22:                                               ; preds = %17
  %23 = load i32, i32* %5, align 4
  %24 = load i32, i32* %2, align 4
  %25 = sub nsw i32 %24, 1
  %26 = sext i32 %25 to i64
  %27 = getelementptr inbounds [20000 x i32], [20000 x i32]* %6, i64 0, i64 %26
  %28 = load i32, i32* %27, align 4
  %29 = icmp eq i32 %23, %28
  br i1 %29, label %30, label %31

30:                                               ; preds = %22
  store i32 1, i32* %9, align 4
  br label %31

31:                                               ; preds = %30, %22
  br label %32

32:                                               ; preds = %31
  %33 = load i32, i32* %2, align 4
  %34 = add nsw i32 %33, 1
  store i32 %34, i32* %2, align 4
  br label %17

35:                                               ; preds = %17
  %36 = load i32, i32* %9, align 4
  %37 = icmp eq i32 %36, 0
  br i1 %37, label %38, label %45

38:                                               ; preds = %35
  %39 = load i32, i32* %5, align 4
  %40 = load i32, i32* %8, align 4
  %41 = sext i32 %40 to i64
  %42 = getelementptr inbounds [20000 x i32], [20000 x i32]* %6, i64 0, i64 %41
  store i32 %39, i32* %42, align 4
  %43 = load i32, i32* %8, align 4
  %44 = add nsw i32 %43, 1
  store i32 %44, i32* %8, align 4
  br label %45

45:                                               ; preds = %38, %35
  store i32 0, i32* %9, align 4
  br label %46

46:                                               ; preds = %45
  %47 = load i32, i32* %3, align 4
  %48 = add nsw i32 %47, 1
  store i32 %48, i32* %3, align 4
  br label %11

49:                                               ; preds = %11
  %50 = getelementptr inbounds [20000 x i32], [20000 x i32]* %6, i64 0, i64 0
  %51 = load i32, i32* %50, align 16
  %52 = call i32 (i8*, ...) @printf(i8* getelementptr inbounds ([3 x i8], [3 x i8]* @.str, i64 0, i64 0), i32 %51)
  store i32 1, i32* %4, align 4
  br label %53

53:                                               ; preds = %64, %49
  %54 = load i32, i32* %4, align 4
  %55 = load i32, i32* %8, align 4
  %56 = sub nsw i32 %55, 1
  %57 = icmp sle i32 %54, %56
  br i1 %57, label %58, label %67

58:                                               ; preds = %53
  %59 = load i32, i32* %4, align 4
  %60 = sext i32 %59 to i64
  %61 = getelementptr inbounds [20000 x i32], [20000 x i32]* %6, i64 0, i64 %60
  %62 = load i32, i32* %61, align 4
  %63 = call i32 (i8*, ...) @printf(i8* getelementptr inbounds ([4 x i8], [4 x i8]* @.str.1, i64 0, i64 0), i32 %62)
  br label %64

64:                                               ; preds = %58
  %65 = load i32, i32* %4, align 4
  %66 = add nsw i32 %65, 1
  store i32 %66, i32* %4, align 4
  br label %53

67:                                               ; preds = %53
  %68 = call i32 (i8*, ...) @printf(i8* getelementptr inbounds ([2 x i8], [2 x i8]* @.str.2, i64 0, i64 0))
  ret i32 0
}

declare dso_local i32 @__isoc99_scanf(i8*, ...) #1

declare dso_local i32 @printf(i8*, ...) #1


!llvm.module.flags = !{!0}
!llvm.ident = !{!1}

!0 = !{i32 1, !"wchar_size", i32 4}
!1 = !{!"clang version 10.0.0-4ubuntu1 "}
